
rv32ui-p-jalr:     file format elf32-littleriscv


Disassembly of section .text.init:

00000000 <_start>:
   0:	00200193          	li	gp,2
   4:	00000293          	li	t0,0
   8:	00000317          	auipc	t1,0x0
   c:	01030313          	addi	t1,t1,16 # 18 <target_2>
  10:	000302e7          	jalr	t0,t1

00000014 <linkaddr_2>:
  14:	0c00006f          	j	d4 <fail>

00000018 <target_2>:
  18:	00000317          	auipc	t1,0x0
  1c:	ffc30313          	addi	t1,t1,-4 # 14 <linkaddr_2>
  20:	0a629a63          	bne	t0,t1,d4 <fail>

00000024 <test_4>:
  24:	00400193          	li	gp,4
  28:	00000213          	li	tp,0
  2c:	00000317          	auipc	t1,0x0
  30:	01030313          	addi	t1,t1,16 # 3c <test_4+0x18>
  34:	000309e7          	jalr	s3,t1
  38:	08301e63          	bne	zero,gp,d4 <fail>
  3c:	00120213          	addi	tp,tp,1 # 1 <_start+0x1>
  40:	00200293          	li	t0,2
  44:	fe5214e3          	bne	tp,t0,2c <test_4+0x8>

00000048 <test_5>:
  48:	00500193          	li	gp,5
  4c:	00000213          	li	tp,0
  50:	00000317          	auipc	t1,0x0
  54:	01430313          	addi	t1,t1,20 # 64 <test_5+0x1c>
  58:	00000013          	nop
  5c:	000309e7          	jalr	s3,t1
  60:	06301a63          	bne	zero,gp,d4 <fail>
  64:	00120213          	addi	tp,tp,1 # 1 <_start+0x1>
  68:	00200293          	li	t0,2
  6c:	fe5212e3          	bne	tp,t0,50 <test_5+0x8>

00000070 <test_6>:
  70:	00600193          	li	gp,6
  74:	00000213          	li	tp,0
  78:	00000317          	auipc	t1,0x0
  7c:	01830313          	addi	t1,t1,24 # 90 <test_6+0x20>
  80:	00000013          	nop
  84:	00000013          	nop
  88:	000309e7          	jalr	s3,t1
  8c:	04301463          	bne	zero,gp,d4 <fail>
  90:	00120213          	addi	tp,tp,1 # 1 <_start+0x1>
  94:	00200293          	li	t0,2
  98:	fe5210e3          	bne	tp,t0,78 <test_6+0x8>

0000009c <test_7>:
  9c:	00100293          	li	t0,1
  a0:	00000317          	auipc	t1,0x0
  a4:	01c30313          	addi	t1,t1,28 # bc <test_7+0x20>
  a8:	ffc30067          	jr	-4(t1)
  ac:	00128293          	addi	t0,t0,1
  b0:	00128293          	addi	t0,t0,1
  b4:	00128293          	addi	t0,t0,1
  b8:	00128293          	addi	t0,t0,1
  bc:	00128293          	addi	t0,t0,1
  c0:	00128293          	addi	t0,t0,1
  c4:	00400e93          	li	t4,4
  c8:	00700193          	li	gp,7
  cc:	01d29463          	bne	t0,t4,d4 <fail>
  d0:	00301a63          	bne	zero,gp,e4 <pass>

000000d4 <fail>:
  d4:	00018063          	beqz	gp,d4 <fail>
  d8:	00119193          	slli	gp,gp,0x1
  dc:	0011e193          	ori	gp,gp,1
  e0:	00000073          	ecall

000000e4 <pass>:
  e4:	00100193          	li	gp,1
  e8:	00000073          	ecall
  ec:	c0001073          	unimp
  f0:	0000                	unimp
  f2:	0000                	unimp
  f4:	0000                	unimp
  f6:	0000                	unimp
  f8:	0000                	unimp
  fa:	0000                	unimp
  fc:	0000                	unimp
  fe:	0000                	unimp
 100:	0000                	unimp
 102:	0000                	unimp
