
rv32ui-p-and:     file format elf32-littleriscv


Disassembly of section .text.init:

00000000 <_start>:
   0:	ff0100b7          	lui	ra,0xff010
   4:	f0008093          	addi	ra,ra,-256 # ff00ff00 <_end+0xff00df00>
   8:	0f0f1137          	lui	sp,0xf0f1
   c:	f0f10113          	addi	sp,sp,-241 # f0f0f0f <_end+0xf0eef0f>
  10:	0020ff33          	and	t5,ra,sp
  14:	0f001eb7          	lui	t4,0xf001
  18:	f00e8e93          	addi	t4,t4,-256 # f000f00 <_end+0xeffef00>
  1c:	00200193          	li	gp,2
  20:	49df1c63          	bne	t5,t4,4b8 <fail>

00000024 <test_3>:
  24:	0ff010b7          	lui	ra,0xff01
  28:	ff008093          	addi	ra,ra,-16 # ff00ff0 <_end+0xfefeff0>
  2c:	f0f0f137          	lui	sp,0xf0f0f
  30:	0f010113          	addi	sp,sp,240 # f0f0f0f0 <_end+0xf0f0d0f0>
  34:	0020ff33          	and	t5,ra,sp
  38:	00f00eb7          	lui	t4,0xf00
  3c:	0f0e8e93          	addi	t4,t4,240 # f000f0 <_end+0xefe0f0>
  40:	00300193          	li	gp,3
  44:	47df1a63          	bne	t5,t4,4b8 <fail>

00000048 <test_4>:
  48:	00ff00b7          	lui	ra,0xff0
  4c:	0ff08093          	addi	ra,ra,255 # ff00ff <_end+0xfee0ff>
  50:	0f0f1137          	lui	sp,0xf0f1
  54:	f0f10113          	addi	sp,sp,-241 # f0f0f0f <_end+0xf0eef0f>
  58:	0020ff33          	and	t5,ra,sp
  5c:	000f0eb7          	lui	t4,0xf0
  60:	00fe8e93          	addi	t4,t4,15 # f000f <_end+0xee00f>
  64:	00400193          	li	gp,4
  68:	45df1863          	bne	t5,t4,4b8 <fail>

0000006c <test_5>:
  6c:	f00ff0b7          	lui	ra,0xf00ff
  70:	00f08093          	addi	ra,ra,15 # f00ff00f <_end+0xf00fd00f>
  74:	f0f0f137          	lui	sp,0xf0f0f
  78:	0f010113          	addi	sp,sp,240 # f0f0f0f0 <_end+0xf0f0d0f0>
  7c:	0020ff33          	and	t5,ra,sp
  80:	f000feb7          	lui	t4,0xf000f
  84:	00500193          	li	gp,5
  88:	43df1863          	bne	t5,t4,4b8 <fail>

0000008c <test_6>:
  8c:	ff0100b7          	lui	ra,0xff010
  90:	f0008093          	addi	ra,ra,-256 # ff00ff00 <_end+0xff00df00>
  94:	0f0f1137          	lui	sp,0xf0f1
  98:	f0f10113          	addi	sp,sp,-241 # f0f0f0f <_end+0xf0eef0f>
  9c:	0020f0b3          	and	ra,ra,sp
  a0:	0f001eb7          	lui	t4,0xf001
  a4:	f00e8e93          	addi	t4,t4,-256 # f000f00 <_end+0xeffef00>
  a8:	00600193          	li	gp,6
  ac:	41d09663          	bne	ra,t4,4b8 <fail>

000000b0 <test_7>:
  b0:	0ff010b7          	lui	ra,0xff01
  b4:	ff008093          	addi	ra,ra,-16 # ff00ff0 <_end+0xfefeff0>
  b8:	f0f0f137          	lui	sp,0xf0f0f
  bc:	0f010113          	addi	sp,sp,240 # f0f0f0f0 <_end+0xf0f0d0f0>
  c0:	0020f133          	and	sp,ra,sp
  c4:	00f00eb7          	lui	t4,0xf00
  c8:	0f0e8e93          	addi	t4,t4,240 # f000f0 <_end+0xefe0f0>
  cc:	00700193          	li	gp,7
  d0:	3fd11463          	bne	sp,t4,4b8 <fail>

000000d4 <test_8>:
  d4:	ff0100b7          	lui	ra,0xff010
  d8:	f0008093          	addi	ra,ra,-256 # ff00ff00 <_end+0xff00df00>
  dc:	0010f0b3          	and	ra,ra,ra
  e0:	ff010eb7          	lui	t4,0xff010
  e4:	f00e8e93          	addi	t4,t4,-256 # ff00ff00 <_end+0xff00df00>
  e8:	00800193          	li	gp,8
  ec:	3dd09663          	bne	ra,t4,4b8 <fail>

000000f0 <test_9>:
  f0:	00000213          	li	tp,0
  f4:	ff0100b7          	lui	ra,0xff010
  f8:	f0008093          	addi	ra,ra,-256 # ff00ff00 <_end+0xff00df00>
  fc:	0f0f1137          	lui	sp,0xf0f1
 100:	f0f10113          	addi	sp,sp,-241 # f0f0f0f <_end+0xf0eef0f>
 104:	0020ff33          	and	t5,ra,sp
 108:	000f0313          	mv	t1,t5
 10c:	00120213          	addi	tp,tp,1 # 1 <_start+0x1>
 110:	00200293          	li	t0,2
 114:	fe5210e3          	bne	tp,t0,f4 <test_9+0x4>
 118:	0f001eb7          	lui	t4,0xf001
 11c:	f00e8e93          	addi	t4,t4,-256 # f000f00 <_end+0xeffef00>
 120:	00900193          	li	gp,9
 124:	39d31a63          	bne	t1,t4,4b8 <fail>

00000128 <test_10>:
 128:	00000213          	li	tp,0
 12c:	0ff010b7          	lui	ra,0xff01
 130:	ff008093          	addi	ra,ra,-16 # ff00ff0 <_end+0xfefeff0>
 134:	f0f0f137          	lui	sp,0xf0f0f
 138:	0f010113          	addi	sp,sp,240 # f0f0f0f0 <_end+0xf0f0d0f0>
 13c:	0020ff33          	and	t5,ra,sp
 140:	00000013          	nop
 144:	000f0313          	mv	t1,t5
 148:	00120213          	addi	tp,tp,1 # 1 <_start+0x1>
 14c:	00200293          	li	t0,2
 150:	fc521ee3          	bne	tp,t0,12c <test_10+0x4>
 154:	00f00eb7          	lui	t4,0xf00
 158:	0f0e8e93          	addi	t4,t4,240 # f000f0 <_end+0xefe0f0>
 15c:	00a00193          	li	gp,10
 160:	35d31c63          	bne	t1,t4,4b8 <fail>

00000164 <test_11>:
 164:	00000213          	li	tp,0
 168:	00ff00b7          	lui	ra,0xff0
 16c:	0ff08093          	addi	ra,ra,255 # ff00ff <_end+0xfee0ff>
 170:	0f0f1137          	lui	sp,0xf0f1
 174:	f0f10113          	addi	sp,sp,-241 # f0f0f0f <_end+0xf0eef0f>
 178:	0020ff33          	and	t5,ra,sp
 17c:	00000013          	nop
 180:	00000013          	nop
 184:	000f0313          	mv	t1,t5
 188:	00120213          	addi	tp,tp,1 # 1 <_start+0x1>
 18c:	00200293          	li	t0,2
 190:	fc521ce3          	bne	tp,t0,168 <test_11+0x4>
 194:	000f0eb7          	lui	t4,0xf0
 198:	00fe8e93          	addi	t4,t4,15 # f000f <_end+0xee00f>
 19c:	00b00193          	li	gp,11
 1a0:	31d31c63          	bne	t1,t4,4b8 <fail>

000001a4 <test_12>:
 1a4:	00000213          	li	tp,0
 1a8:	ff0100b7          	lui	ra,0xff010
 1ac:	f0008093          	addi	ra,ra,-256 # ff00ff00 <_end+0xff00df00>
 1b0:	0f0f1137          	lui	sp,0xf0f1
 1b4:	f0f10113          	addi	sp,sp,-241 # f0f0f0f <_end+0xf0eef0f>
 1b8:	0020ff33          	and	t5,ra,sp
 1bc:	00120213          	addi	tp,tp,1 # 1 <_start+0x1>
 1c0:	00200293          	li	t0,2
 1c4:	fe5212e3          	bne	tp,t0,1a8 <test_12+0x4>
 1c8:	0f001eb7          	lui	t4,0xf001
 1cc:	f00e8e93          	addi	t4,t4,-256 # f000f00 <_end+0xeffef00>
 1d0:	00c00193          	li	gp,12
 1d4:	2fdf1263          	bne	t5,t4,4b8 <fail>

000001d8 <test_13>:
 1d8:	00000213          	li	tp,0
 1dc:	0ff010b7          	lui	ra,0xff01
 1e0:	ff008093          	addi	ra,ra,-16 # ff00ff0 <_end+0xfefeff0>
 1e4:	f0f0f137          	lui	sp,0xf0f0f
 1e8:	0f010113          	addi	sp,sp,240 # f0f0f0f0 <_end+0xf0f0d0f0>
 1ec:	00000013          	nop
 1f0:	0020ff33          	and	t5,ra,sp
 1f4:	00120213          	addi	tp,tp,1 # 1 <_start+0x1>
 1f8:	00200293          	li	t0,2
 1fc:	fe5210e3          	bne	tp,t0,1dc <test_13+0x4>
 200:	00f00eb7          	lui	t4,0xf00
 204:	0f0e8e93          	addi	t4,t4,240 # f000f0 <_end+0xefe0f0>
 208:	00d00193          	li	gp,13
 20c:	2bdf1663          	bne	t5,t4,4b8 <fail>

00000210 <test_14>:
 210:	00000213          	li	tp,0
 214:	00ff00b7          	lui	ra,0xff0
 218:	0ff08093          	addi	ra,ra,255 # ff00ff <_end+0xfee0ff>
 21c:	0f0f1137          	lui	sp,0xf0f1
 220:	f0f10113          	addi	sp,sp,-241 # f0f0f0f <_end+0xf0eef0f>
 224:	00000013          	nop
 228:	00000013          	nop
 22c:	0020ff33          	and	t5,ra,sp
 230:	00120213          	addi	tp,tp,1 # 1 <_start+0x1>
 234:	00200293          	li	t0,2
 238:	fc521ee3          	bne	tp,t0,214 <test_14+0x4>
 23c:	000f0eb7          	lui	t4,0xf0
 240:	00fe8e93          	addi	t4,t4,15 # f000f <_end+0xee00f>
 244:	00e00193          	li	gp,14
 248:	27df1863          	bne	t5,t4,4b8 <fail>

0000024c <test_15>:
 24c:	00000213          	li	tp,0
 250:	ff0100b7          	lui	ra,0xff010
 254:	f0008093          	addi	ra,ra,-256 # ff00ff00 <_end+0xff00df00>
 258:	00000013          	nop
 25c:	0f0f1137          	lui	sp,0xf0f1
 260:	f0f10113          	addi	sp,sp,-241 # f0f0f0f <_end+0xf0eef0f>
 264:	0020ff33          	and	t5,ra,sp
 268:	00120213          	addi	tp,tp,1 # 1 <_start+0x1>
 26c:	00200293          	li	t0,2
 270:	fe5210e3          	bne	tp,t0,250 <test_15+0x4>
 274:	0f001eb7          	lui	t4,0xf001
 278:	f00e8e93          	addi	t4,t4,-256 # f000f00 <_end+0xeffef00>
 27c:	00f00193          	li	gp,15
 280:	23df1c63          	bne	t5,t4,4b8 <fail>

00000284 <test_16>:
 284:	00000213          	li	tp,0
 288:	0ff010b7          	lui	ra,0xff01
 28c:	ff008093          	addi	ra,ra,-16 # ff00ff0 <_end+0xfefeff0>
 290:	00000013          	nop
 294:	f0f0f137          	lui	sp,0xf0f0f
 298:	0f010113          	addi	sp,sp,240 # f0f0f0f0 <_end+0xf0f0d0f0>
 29c:	00000013          	nop
 2a0:	0020ff33          	and	t5,ra,sp
 2a4:	00120213          	addi	tp,tp,1 # 1 <_start+0x1>
 2a8:	00200293          	li	t0,2
 2ac:	fc521ee3          	bne	tp,t0,288 <test_16+0x4>
 2b0:	00f00eb7          	lui	t4,0xf00
 2b4:	0f0e8e93          	addi	t4,t4,240 # f000f0 <_end+0xefe0f0>
 2b8:	01000193          	li	gp,16
 2bc:	1fdf1e63          	bne	t5,t4,4b8 <fail>

000002c0 <test_17>:
 2c0:	00000213          	li	tp,0
 2c4:	00ff00b7          	lui	ra,0xff0
 2c8:	0ff08093          	addi	ra,ra,255 # ff00ff <_end+0xfee0ff>
 2cc:	00000013          	nop
 2d0:	00000013          	nop
 2d4:	0f0f1137          	lui	sp,0xf0f1
 2d8:	f0f10113          	addi	sp,sp,-241 # f0f0f0f <_end+0xf0eef0f>
 2dc:	0020ff33          	and	t5,ra,sp
 2e0:	00120213          	addi	tp,tp,1 # 1 <_start+0x1>
 2e4:	00200293          	li	t0,2
 2e8:	fc521ee3          	bne	tp,t0,2c4 <test_17+0x4>
 2ec:	000f0eb7          	lui	t4,0xf0
 2f0:	00fe8e93          	addi	t4,t4,15 # f000f <_end+0xee00f>
 2f4:	01100193          	li	gp,17
 2f8:	1ddf1063          	bne	t5,t4,4b8 <fail>

000002fc <test_18>:
 2fc:	00000213          	li	tp,0
 300:	0f0f1137          	lui	sp,0xf0f1
 304:	f0f10113          	addi	sp,sp,-241 # f0f0f0f <_end+0xf0eef0f>
 308:	ff0100b7          	lui	ra,0xff010
 30c:	f0008093          	addi	ra,ra,-256 # ff00ff00 <_end+0xff00df00>
 310:	0020ff33          	and	t5,ra,sp
 314:	00120213          	addi	tp,tp,1 # 1 <_start+0x1>
 318:	00200293          	li	t0,2
 31c:	fe5212e3          	bne	tp,t0,300 <test_18+0x4>
 320:	0f001eb7          	lui	t4,0xf001
 324:	f00e8e93          	addi	t4,t4,-256 # f000f00 <_end+0xeffef00>
 328:	01200193          	li	gp,18
 32c:	19df1663          	bne	t5,t4,4b8 <fail>

00000330 <test_19>:
 330:	00000213          	li	tp,0
 334:	f0f0f137          	lui	sp,0xf0f0f
 338:	0f010113          	addi	sp,sp,240 # f0f0f0f0 <_end+0xf0f0d0f0>
 33c:	0ff010b7          	lui	ra,0xff01
 340:	ff008093          	addi	ra,ra,-16 # ff00ff0 <_end+0xfefeff0>
 344:	00000013          	nop
 348:	0020ff33          	and	t5,ra,sp
 34c:	00120213          	addi	tp,tp,1 # 1 <_start+0x1>
 350:	00200293          	li	t0,2
 354:	fe5210e3          	bne	tp,t0,334 <test_19+0x4>
 358:	00f00eb7          	lui	t4,0xf00
 35c:	0f0e8e93          	addi	t4,t4,240 # f000f0 <_end+0xefe0f0>
 360:	01300193          	li	gp,19
 364:	15df1a63          	bne	t5,t4,4b8 <fail>

00000368 <test_20>:
 368:	00000213          	li	tp,0
 36c:	0f0f1137          	lui	sp,0xf0f1
 370:	f0f10113          	addi	sp,sp,-241 # f0f0f0f <_end+0xf0eef0f>
 374:	00ff00b7          	lui	ra,0xff0
 378:	0ff08093          	addi	ra,ra,255 # ff00ff <_end+0xfee0ff>
 37c:	00000013          	nop
 380:	00000013          	nop
 384:	0020ff33          	and	t5,ra,sp
 388:	00120213          	addi	tp,tp,1 # 1 <_start+0x1>
 38c:	00200293          	li	t0,2
 390:	fc521ee3          	bne	tp,t0,36c <test_20+0x4>
 394:	000f0eb7          	lui	t4,0xf0
 398:	00fe8e93          	addi	t4,t4,15 # f000f <_end+0xee00f>
 39c:	01400193          	li	gp,20
 3a0:	11df1c63          	bne	t5,t4,4b8 <fail>

000003a4 <test_21>:
 3a4:	00000213          	li	tp,0
 3a8:	0f0f1137          	lui	sp,0xf0f1
 3ac:	f0f10113          	addi	sp,sp,-241 # f0f0f0f <_end+0xf0eef0f>
 3b0:	00000013          	nop
 3b4:	ff0100b7          	lui	ra,0xff010
 3b8:	f0008093          	addi	ra,ra,-256 # ff00ff00 <_end+0xff00df00>
 3bc:	0020ff33          	and	t5,ra,sp
 3c0:	00120213          	addi	tp,tp,1 # 1 <_start+0x1>
 3c4:	00200293          	li	t0,2
 3c8:	fe5210e3          	bne	tp,t0,3a8 <test_21+0x4>
 3cc:	0f001eb7          	lui	t4,0xf001
 3d0:	f00e8e93          	addi	t4,t4,-256 # f000f00 <_end+0xeffef00>
 3d4:	01500193          	li	gp,21
 3d8:	0fdf1063          	bne	t5,t4,4b8 <fail>

000003dc <test_22>:
 3dc:	00000213          	li	tp,0
 3e0:	f0f0f137          	lui	sp,0xf0f0f
 3e4:	0f010113          	addi	sp,sp,240 # f0f0f0f0 <_end+0xf0f0d0f0>
 3e8:	00000013          	nop
 3ec:	0ff010b7          	lui	ra,0xff01
 3f0:	ff008093          	addi	ra,ra,-16 # ff00ff0 <_end+0xfefeff0>
 3f4:	00000013          	nop
 3f8:	0020ff33          	and	t5,ra,sp
 3fc:	00120213          	addi	tp,tp,1 # 1 <_start+0x1>
 400:	00200293          	li	t0,2
 404:	fc521ee3          	bne	tp,t0,3e0 <test_22+0x4>
 408:	00f00eb7          	lui	t4,0xf00
 40c:	0f0e8e93          	addi	t4,t4,240 # f000f0 <_end+0xefe0f0>
 410:	01600193          	li	gp,22
 414:	0bdf1263          	bne	t5,t4,4b8 <fail>

00000418 <test_23>:
 418:	00000213          	li	tp,0
 41c:	0f0f1137          	lui	sp,0xf0f1
 420:	f0f10113          	addi	sp,sp,-241 # f0f0f0f <_end+0xf0eef0f>
 424:	00000013          	nop
 428:	00000013          	nop
 42c:	00ff00b7          	lui	ra,0xff0
 430:	0ff08093          	addi	ra,ra,255 # ff00ff <_end+0xfee0ff>
 434:	0020ff33          	and	t5,ra,sp
 438:	00120213          	addi	tp,tp,1 # 1 <_start+0x1>
 43c:	00200293          	li	t0,2
 440:	fc521ee3          	bne	tp,t0,41c <test_23+0x4>
 444:	000f0eb7          	lui	t4,0xf0
 448:	00fe8e93          	addi	t4,t4,15 # f000f <_end+0xee00f>
 44c:	01700193          	li	gp,23
 450:	07df1463          	bne	t5,t4,4b8 <fail>

00000454 <test_24>:
 454:	ff0100b7          	lui	ra,0xff010
 458:	f0008093          	addi	ra,ra,-256 # ff00ff00 <_end+0xff00df00>
 45c:	00107133          	and	sp,zero,ra
 460:	00000e93          	li	t4,0
 464:	01800193          	li	gp,24
 468:	05d11863          	bne	sp,t4,4b8 <fail>

0000046c <test_25>:
 46c:	00ff00b7          	lui	ra,0xff0
 470:	0ff08093          	addi	ra,ra,255 # ff00ff <_end+0xfee0ff>
 474:	0000f133          	and	sp,ra,zero
 478:	00000e93          	li	t4,0
 47c:	01900193          	li	gp,25
 480:	03d11c63          	bne	sp,t4,4b8 <fail>

00000484 <test_26>:
 484:	000070b3          	and	ra,zero,zero
 488:	00000e93          	li	t4,0
 48c:	01a00193          	li	gp,26
 490:	03d09463          	bne	ra,t4,4b8 <fail>

00000494 <test_27>:
 494:	111110b7          	lui	ra,0x11111
 498:	11108093          	addi	ra,ra,273 # 11111111 <_end+0x1110f111>
 49c:	22222137          	lui	sp,0x22222
 4a0:	22210113          	addi	sp,sp,546 # 22222222 <_end+0x22220222>
 4a4:	0020f033          	and	zero,ra,sp
 4a8:	00000e93          	li	t4,0
 4ac:	01b00193          	li	gp,27
 4b0:	01d01463          	bne	zero,t4,4b8 <fail>
 4b4:	00301a63          	bne	zero,gp,4c8 <pass>

000004b8 <fail>:
 4b8:	00018063          	beqz	gp,4b8 <fail>
 4bc:	00119193          	slli	gp,gp,0x1
 4c0:	0011e193          	ori	gp,gp,1
 4c4:	00000073          	ecall

000004c8 <pass>:
 4c8:	00100193          	li	gp,1
 4cc:	00000073          	ecall
 4d0:	c0001073          	unimp
 4d4:	0000                	unimp
 4d6:	0000                	unimp
 4d8:	0000                	unimp
 4da:	0000                	unimp
 4dc:	0000                	unimp
 4de:	0000                	unimp
 4e0:	0000                	unimp
 4e2:	0000                	unimp
 4e4:	0000                	unimp
 4e6:	0000                	unimp
 4e8:	0000                	unimp
 4ea:	0000                	unimp
 4ec:	0000                	unimp
 4ee:	0000                	unimp
 4f0:	0000                	unimp
 4f2:	0000                	unimp
 4f4:	0000                	unimp
 4f6:	0000                	unimp
 4f8:	0000                	unimp
 4fa:	0000                	unimp
 4fc:	0000                	unimp
 4fe:	0000                	unimp
 500:	0000                	unimp
 502:	0000                	unimp
