
rv32ui-p-srl:     file format elf32-littleriscv


Disassembly of section .text.init:

00000000 <_start>:
   0:	800000b7          	lui	ra,0x80000
   4:	00000113          	li	sp,0
   8:	0020df33          	srl	t5,ra,sp
   c:	80000eb7          	lui	t4,0x80000
  10:	00200193          	li	gp,2
  14:	57df1863          	bne	t5,t4,584 <fail>

00000018 <test_3>:
  18:	800000b7          	lui	ra,0x80000
  1c:	00100113          	li	sp,1
  20:	0020df33          	srl	t5,ra,sp
  24:	40000eb7          	lui	t4,0x40000
  28:	00300193          	li	gp,3
  2c:	55df1c63          	bne	t5,t4,584 <fail>

00000030 <test_4>:
  30:	800000b7          	lui	ra,0x80000
  34:	00700113          	li	sp,7
  38:	0020df33          	srl	t5,ra,sp
  3c:	01000eb7          	lui	t4,0x1000
  40:	00400193          	li	gp,4
  44:	55df1063          	bne	t5,t4,584 <fail>

00000048 <test_5>:
  48:	800000b7          	lui	ra,0x80000
  4c:	00e00113          	li	sp,14
  50:	0020df33          	srl	t5,ra,sp
  54:	00020eb7          	lui	t4,0x20
  58:	00500193          	li	gp,5
  5c:	53df1463          	bne	t5,t4,584 <fail>

00000060 <test_6>:
  60:	800000b7          	lui	ra,0x80000
  64:	00108093          	addi	ra,ra,1 # 80000001 <_end+0x7fffe001>
  68:	01f00113          	li	sp,31
  6c:	0020df33          	srl	t5,ra,sp
  70:	00100e93          	li	t4,1
  74:	00600193          	li	gp,6
  78:	51df1663          	bne	t5,t4,584 <fail>

0000007c <test_7>:
  7c:	fff00093          	li	ra,-1
  80:	00000113          	li	sp,0
  84:	0020df33          	srl	t5,ra,sp
  88:	fff00e93          	li	t4,-1
  8c:	00700193          	li	gp,7
  90:	4fdf1a63          	bne	t5,t4,584 <fail>

00000094 <test_8>:
  94:	fff00093          	li	ra,-1
  98:	00100113          	li	sp,1
  9c:	0020df33          	srl	t5,ra,sp
  a0:	80000eb7          	lui	t4,0x80000
  a4:	fffe8e93          	addi	t4,t4,-1 # 7fffffff <_end+0x7fffdfff>
  a8:	00800193          	li	gp,8
  ac:	4ddf1c63          	bne	t5,t4,584 <fail>

000000b0 <test_9>:
  b0:	fff00093          	li	ra,-1
  b4:	00700113          	li	sp,7
  b8:	0020df33          	srl	t5,ra,sp
  bc:	02000eb7          	lui	t4,0x2000
  c0:	fffe8e93          	addi	t4,t4,-1 # 1ffffff <_end+0x1ffdfff>
  c4:	00900193          	li	gp,9
  c8:	4bdf1e63          	bne	t5,t4,584 <fail>

000000cc <test_10>:
  cc:	fff00093          	li	ra,-1
  d0:	00e00113          	li	sp,14
  d4:	0020df33          	srl	t5,ra,sp
  d8:	00040eb7          	lui	t4,0x40
  dc:	fffe8e93          	addi	t4,t4,-1 # 3ffff <_end+0x3dfff>
  e0:	00a00193          	li	gp,10
  e4:	4bdf1063          	bne	t5,t4,584 <fail>

000000e8 <test_11>:
  e8:	fff00093          	li	ra,-1
  ec:	01f00113          	li	sp,31
  f0:	0020df33          	srl	t5,ra,sp
  f4:	00100e93          	li	t4,1
  f8:	00b00193          	li	gp,11
  fc:	49df1463          	bne	t5,t4,584 <fail>

00000100 <test_12>:
 100:	212120b7          	lui	ra,0x21212
 104:	12108093          	addi	ra,ra,289 # 21212121 <_end+0x21210121>
 108:	00000113          	li	sp,0
 10c:	0020df33          	srl	t5,ra,sp
 110:	21212eb7          	lui	t4,0x21212
 114:	121e8e93          	addi	t4,t4,289 # 21212121 <_end+0x21210121>
 118:	00c00193          	li	gp,12
 11c:	47df1463          	bne	t5,t4,584 <fail>

00000120 <test_13>:
 120:	212120b7          	lui	ra,0x21212
 124:	12108093          	addi	ra,ra,289 # 21212121 <_end+0x21210121>
 128:	00100113          	li	sp,1
 12c:	0020df33          	srl	t5,ra,sp
 130:	10909eb7          	lui	t4,0x10909
 134:	090e8e93          	addi	t4,t4,144 # 10909090 <_end+0x10907090>
 138:	00d00193          	li	gp,13
 13c:	45df1463          	bne	t5,t4,584 <fail>

00000140 <test_14>:
 140:	212120b7          	lui	ra,0x21212
 144:	12108093          	addi	ra,ra,289 # 21212121 <_end+0x21210121>
 148:	00700113          	li	sp,7
 14c:	0020df33          	srl	t5,ra,sp
 150:	00424eb7          	lui	t4,0x424
 154:	242e8e93          	addi	t4,t4,578 # 424242 <_end+0x422242>
 158:	00e00193          	li	gp,14
 15c:	43df1463          	bne	t5,t4,584 <fail>

00000160 <test_15>:
 160:	212120b7          	lui	ra,0x21212
 164:	12108093          	addi	ra,ra,289 # 21212121 <_end+0x21210121>
 168:	00e00113          	li	sp,14
 16c:	0020df33          	srl	t5,ra,sp
 170:	00008eb7          	lui	t4,0x8
 174:	484e8e93          	addi	t4,t4,1156 # 8484 <_end+0x6484>
 178:	00f00193          	li	gp,15
 17c:	41df1463          	bne	t5,t4,584 <fail>

00000180 <test_16>:
 180:	212120b7          	lui	ra,0x21212
 184:	12108093          	addi	ra,ra,289 # 21212121 <_end+0x21210121>
 188:	01f00113          	li	sp,31
 18c:	0020df33          	srl	t5,ra,sp
 190:	00000e93          	li	t4,0
 194:	01000193          	li	gp,16
 198:	3fdf1663          	bne	t5,t4,584 <fail>

0000019c <test_17>:
 19c:	212120b7          	lui	ra,0x21212
 1a0:	12108093          	addi	ra,ra,289 # 21212121 <_end+0x21210121>
 1a4:	fc000113          	li	sp,-64
 1a8:	0020df33          	srl	t5,ra,sp
 1ac:	21212eb7          	lui	t4,0x21212
 1b0:	121e8e93          	addi	t4,t4,289 # 21212121 <_end+0x21210121>
 1b4:	01100193          	li	gp,17
 1b8:	3ddf1663          	bne	t5,t4,584 <fail>

000001bc <test_18>:
 1bc:	212120b7          	lui	ra,0x21212
 1c0:	12108093          	addi	ra,ra,289 # 21212121 <_end+0x21210121>
 1c4:	fc100113          	li	sp,-63
 1c8:	0020df33          	srl	t5,ra,sp
 1cc:	10909eb7          	lui	t4,0x10909
 1d0:	090e8e93          	addi	t4,t4,144 # 10909090 <_end+0x10907090>
 1d4:	01200193          	li	gp,18
 1d8:	3bdf1663          	bne	t5,t4,584 <fail>

000001dc <test_19>:
 1dc:	212120b7          	lui	ra,0x21212
 1e0:	12108093          	addi	ra,ra,289 # 21212121 <_end+0x21210121>
 1e4:	fc700113          	li	sp,-57
 1e8:	0020df33          	srl	t5,ra,sp
 1ec:	00424eb7          	lui	t4,0x424
 1f0:	242e8e93          	addi	t4,t4,578 # 424242 <_end+0x422242>
 1f4:	01300193          	li	gp,19
 1f8:	39df1663          	bne	t5,t4,584 <fail>

000001fc <test_20>:
 1fc:	212120b7          	lui	ra,0x21212
 200:	12108093          	addi	ra,ra,289 # 21212121 <_end+0x21210121>
 204:	fce00113          	li	sp,-50
 208:	0020df33          	srl	t5,ra,sp
 20c:	00008eb7          	lui	t4,0x8
 210:	484e8e93          	addi	t4,t4,1156 # 8484 <_end+0x6484>
 214:	01400193          	li	gp,20
 218:	37df1663          	bne	t5,t4,584 <fail>

0000021c <test_21>:
 21c:	212120b7          	lui	ra,0x21212
 220:	12108093          	addi	ra,ra,289 # 21212121 <_end+0x21210121>
 224:	fff00113          	li	sp,-1
 228:	0020df33          	srl	t5,ra,sp
 22c:	00000e93          	li	t4,0
 230:	01500193          	li	gp,21
 234:	35df1863          	bne	t5,t4,584 <fail>

00000238 <test_22>:
 238:	800000b7          	lui	ra,0x80000
 23c:	00700113          	li	sp,7
 240:	0020d0b3          	srl	ra,ra,sp
 244:	01000eb7          	lui	t4,0x1000
 248:	01600193          	li	gp,22
 24c:	33d09c63          	bne	ra,t4,584 <fail>

00000250 <test_23>:
 250:	800000b7          	lui	ra,0x80000
 254:	00e00113          	li	sp,14
 258:	0020d133          	srl	sp,ra,sp
 25c:	00020eb7          	lui	t4,0x20
 260:	01700193          	li	gp,23
 264:	33d11063          	bne	sp,t4,584 <fail>

00000268 <test_24>:
 268:	00700093          	li	ra,7
 26c:	0010d0b3          	srl	ra,ra,ra
 270:	00000e93          	li	t4,0
 274:	01800193          	li	gp,24
 278:	31d09663          	bne	ra,t4,584 <fail>

0000027c <test_25>:
 27c:	00000213          	li	tp,0
 280:	800000b7          	lui	ra,0x80000
 284:	00700113          	li	sp,7
 288:	0020df33          	srl	t5,ra,sp
 28c:	000f0313          	mv	t1,t5
 290:	00120213          	addi	tp,tp,1 # 1 <_start+0x1>
 294:	00200293          	li	t0,2
 298:	fe5214e3          	bne	tp,t0,280 <test_25+0x4>
 29c:	01000eb7          	lui	t4,0x1000
 2a0:	01900193          	li	gp,25
 2a4:	2fd31063          	bne	t1,t4,584 <fail>

000002a8 <test_26>:
 2a8:	00000213          	li	tp,0
 2ac:	800000b7          	lui	ra,0x80000
 2b0:	00e00113          	li	sp,14
 2b4:	0020df33          	srl	t5,ra,sp
 2b8:	00000013          	nop
 2bc:	000f0313          	mv	t1,t5
 2c0:	00120213          	addi	tp,tp,1 # 1 <_start+0x1>
 2c4:	00200293          	li	t0,2
 2c8:	fe5212e3          	bne	tp,t0,2ac <test_26+0x4>
 2cc:	00020eb7          	lui	t4,0x20
 2d0:	01a00193          	li	gp,26
 2d4:	2bd31863          	bne	t1,t4,584 <fail>

000002d8 <test_27>:
 2d8:	00000213          	li	tp,0
 2dc:	800000b7          	lui	ra,0x80000
 2e0:	01f00113          	li	sp,31
 2e4:	0020df33          	srl	t5,ra,sp
 2e8:	00000013          	nop
 2ec:	00000013          	nop
 2f0:	000f0313          	mv	t1,t5
 2f4:	00120213          	addi	tp,tp,1 # 1 <_start+0x1>
 2f8:	00200293          	li	t0,2
 2fc:	fe5210e3          	bne	tp,t0,2dc <test_27+0x4>
 300:	00100e93          	li	t4,1
 304:	01b00193          	li	gp,27
 308:	27d31e63          	bne	t1,t4,584 <fail>

0000030c <test_28>:
 30c:	00000213          	li	tp,0
 310:	800000b7          	lui	ra,0x80000
 314:	00700113          	li	sp,7
 318:	0020df33          	srl	t5,ra,sp
 31c:	00120213          	addi	tp,tp,1 # 1 <_start+0x1>
 320:	00200293          	li	t0,2
 324:	fe5216e3          	bne	tp,t0,310 <test_28+0x4>
 328:	01000eb7          	lui	t4,0x1000
 32c:	01c00193          	li	gp,28
 330:	25df1a63          	bne	t5,t4,584 <fail>

00000334 <test_29>:
 334:	00000213          	li	tp,0
 338:	800000b7          	lui	ra,0x80000
 33c:	00e00113          	li	sp,14
 340:	00000013          	nop
 344:	0020df33          	srl	t5,ra,sp
 348:	00120213          	addi	tp,tp,1 # 1 <_start+0x1>
 34c:	00200293          	li	t0,2
 350:	fe5214e3          	bne	tp,t0,338 <test_29+0x4>
 354:	00020eb7          	lui	t4,0x20
 358:	01d00193          	li	gp,29
 35c:	23df1463          	bne	t5,t4,584 <fail>

00000360 <test_30>:
 360:	00000213          	li	tp,0
 364:	800000b7          	lui	ra,0x80000
 368:	01f00113          	li	sp,31
 36c:	00000013          	nop
 370:	00000013          	nop
 374:	0020df33          	srl	t5,ra,sp
 378:	00120213          	addi	tp,tp,1 # 1 <_start+0x1>
 37c:	00200293          	li	t0,2
 380:	fe5212e3          	bne	tp,t0,364 <test_30+0x4>
 384:	00100e93          	li	t4,1
 388:	01e00193          	li	gp,30
 38c:	1fdf1c63          	bne	t5,t4,584 <fail>

00000390 <test_31>:
 390:	00000213          	li	tp,0
 394:	800000b7          	lui	ra,0x80000
 398:	00000013          	nop
 39c:	00700113          	li	sp,7
 3a0:	0020df33          	srl	t5,ra,sp
 3a4:	00120213          	addi	tp,tp,1 # 1 <_start+0x1>
 3a8:	00200293          	li	t0,2
 3ac:	fe5214e3          	bne	tp,t0,394 <test_31+0x4>
 3b0:	01000eb7          	lui	t4,0x1000
 3b4:	01f00193          	li	gp,31
 3b8:	1ddf1663          	bne	t5,t4,584 <fail>

000003bc <test_32>:
 3bc:	00000213          	li	tp,0
 3c0:	800000b7          	lui	ra,0x80000
 3c4:	00000013          	nop
 3c8:	00e00113          	li	sp,14
 3cc:	00000013          	nop
 3d0:	0020df33          	srl	t5,ra,sp
 3d4:	00120213          	addi	tp,tp,1 # 1 <_start+0x1>
 3d8:	00200293          	li	t0,2
 3dc:	fe5212e3          	bne	tp,t0,3c0 <test_32+0x4>
 3e0:	00020eb7          	lui	t4,0x20
 3e4:	02000193          	li	gp,32
 3e8:	19df1e63          	bne	t5,t4,584 <fail>

000003ec <test_33>:
 3ec:	00000213          	li	tp,0
 3f0:	800000b7          	lui	ra,0x80000
 3f4:	00000013          	nop
 3f8:	00000013          	nop
 3fc:	01f00113          	li	sp,31
 400:	0020df33          	srl	t5,ra,sp
 404:	00120213          	addi	tp,tp,1 # 1 <_start+0x1>
 408:	00200293          	li	t0,2
 40c:	fe5212e3          	bne	tp,t0,3f0 <test_33+0x4>
 410:	00100e93          	li	t4,1
 414:	02100193          	li	gp,33
 418:	17df1663          	bne	t5,t4,584 <fail>

0000041c <test_34>:
 41c:	00000213          	li	tp,0
 420:	00700113          	li	sp,7
 424:	800000b7          	lui	ra,0x80000
 428:	0020df33          	srl	t5,ra,sp
 42c:	00120213          	addi	tp,tp,1 # 1 <_start+0x1>
 430:	00200293          	li	t0,2
 434:	fe5216e3          	bne	tp,t0,420 <test_34+0x4>
 438:	01000eb7          	lui	t4,0x1000
 43c:	02200193          	li	gp,34
 440:	15df1263          	bne	t5,t4,584 <fail>

00000444 <test_35>:
 444:	00000213          	li	tp,0
 448:	00e00113          	li	sp,14
 44c:	800000b7          	lui	ra,0x80000
 450:	00000013          	nop
 454:	0020df33          	srl	t5,ra,sp
 458:	00120213          	addi	tp,tp,1 # 1 <_start+0x1>
 45c:	00200293          	li	t0,2
 460:	fe5214e3          	bne	tp,t0,448 <test_35+0x4>
 464:	00020eb7          	lui	t4,0x20
 468:	02300193          	li	gp,35
 46c:	11df1c63          	bne	t5,t4,584 <fail>

00000470 <test_36>:
 470:	00000213          	li	tp,0
 474:	01f00113          	li	sp,31
 478:	800000b7          	lui	ra,0x80000
 47c:	00000013          	nop
 480:	00000013          	nop
 484:	0020df33          	srl	t5,ra,sp
 488:	00120213          	addi	tp,tp,1 # 1 <_start+0x1>
 48c:	00200293          	li	t0,2
 490:	fe5212e3          	bne	tp,t0,474 <test_36+0x4>
 494:	00100e93          	li	t4,1
 498:	02400193          	li	gp,36
 49c:	0fdf1463          	bne	t5,t4,584 <fail>

000004a0 <test_37>:
 4a0:	00000213          	li	tp,0
 4a4:	00700113          	li	sp,7
 4a8:	00000013          	nop
 4ac:	800000b7          	lui	ra,0x80000
 4b0:	0020df33          	srl	t5,ra,sp
 4b4:	00120213          	addi	tp,tp,1 # 1 <_start+0x1>
 4b8:	00200293          	li	t0,2
 4bc:	fe5214e3          	bne	tp,t0,4a4 <test_37+0x4>
 4c0:	01000eb7          	lui	t4,0x1000
 4c4:	02500193          	li	gp,37
 4c8:	0bdf1e63          	bne	t5,t4,584 <fail>

000004cc <test_38>:
 4cc:	00000213          	li	tp,0
 4d0:	00e00113          	li	sp,14
 4d4:	00000013          	nop
 4d8:	800000b7          	lui	ra,0x80000
 4dc:	00000013          	nop
 4e0:	0020df33          	srl	t5,ra,sp
 4e4:	00120213          	addi	tp,tp,1 # 1 <_start+0x1>
 4e8:	00200293          	li	t0,2
 4ec:	fe5212e3          	bne	tp,t0,4d0 <test_38+0x4>
 4f0:	00020eb7          	lui	t4,0x20
 4f4:	02600193          	li	gp,38
 4f8:	09df1663          	bne	t5,t4,584 <fail>

000004fc <test_39>:
 4fc:	00000213          	li	tp,0
 500:	01f00113          	li	sp,31
 504:	00000013          	nop
 508:	00000013          	nop
 50c:	800000b7          	lui	ra,0x80000
 510:	0020df33          	srl	t5,ra,sp
 514:	00120213          	addi	tp,tp,1 # 1 <_start+0x1>
 518:	00200293          	li	t0,2
 51c:	fe5212e3          	bne	tp,t0,500 <test_39+0x4>
 520:	00100e93          	li	t4,1
 524:	02700193          	li	gp,39
 528:	05df1e63          	bne	t5,t4,584 <fail>

0000052c <test_40>:
 52c:	00f00093          	li	ra,15
 530:	00105133          	srl	sp,zero,ra
 534:	00000e93          	li	t4,0
 538:	02800193          	li	gp,40
 53c:	05d11463          	bne	sp,t4,584 <fail>

00000540 <test_41>:
 540:	02000093          	li	ra,32
 544:	0000d133          	srl	sp,ra,zero
 548:	02000e93          	li	t4,32
 54c:	02900193          	li	gp,41
 550:	03d11a63          	bne	sp,t4,584 <fail>

00000554 <test_42>:
 554:	000050b3          	srl	ra,zero,zero
 558:	00000e93          	li	t4,0
 55c:	02a00193          	li	gp,42
 560:	03d09263          	bne	ra,t4,584 <fail>

00000564 <test_43>:
 564:	40000093          	li	ra,1024
 568:	00001137          	lui	sp,0x1
 56c:	80010113          	addi	sp,sp,-2048 # 800 <pass+0x26c>
 570:	0020d033          	srl	zero,ra,sp
 574:	00000e93          	li	t4,0
 578:	02b00193          	li	gp,43
 57c:	01d01463          	bne	zero,t4,584 <fail>
 580:	00301a63          	bne	zero,gp,594 <pass>

00000584 <fail>:
 584:	00018063          	beqz	gp,584 <fail>
 588:	00119193          	slli	gp,gp,0x1
 58c:	0011e193          	ori	gp,gp,1
 590:	00000073          	ecall

00000594 <pass>:
 594:	00100193          	li	gp,1
 598:	00000073          	ecall
 59c:	c0001073          	unimp
 5a0:	0000                	unimp
 5a2:	0000                	unimp
 5a4:	0000                	unimp
 5a6:	0000                	unimp
 5a8:	0000                	unimp
 5aa:	0000                	unimp
 5ac:	0000                	unimp
 5ae:	0000                	unimp
 5b0:	0000                	unimp
 5b2:	0000                	unimp
 5b4:	0000                	unimp
 5b6:	0000                	unimp
 5b8:	0000                	unimp
 5ba:	0000                	unimp
 5bc:	0000                	unimp
 5be:	0000                	unimp
 5c0:	0000                	unimp
 5c2:	0000                	unimp
