
rv32ui-p-auipc:     file format elf32-littleriscv


Disassembly of section .text.init:

00000000 <_start>:
   0:	00002517          	auipc	a0,0x2
   4:	71c50513          	addi	a0,a0,1820 # 271c <_end+0x71c>
   8:	004005ef          	jal	a1,c <_start+0xc>
   c:	40b50533          	sub	a0,a0,a1
  10:	00002eb7          	lui	t4,0x2
  14:	710e8e93          	addi	t4,t4,1808 # 2710 <_end+0x710>
  18:	00200193          	li	gp,2
  1c:	03d51463          	bne	a0,t4,44 <fail>

00000020 <test_3>:
  20:	ffffe517          	auipc	a0,0xffffe
  24:	8fc50513          	addi	a0,a0,-1796 # ffffd91c <_end+0xffffb91c>
  28:	004005ef          	jal	a1,2c <test_3+0xc>
  2c:	40b50533          	sub	a0,a0,a1
  30:	ffffeeb7          	lui	t4,0xffffe
  34:	8f0e8e93          	addi	t4,t4,-1808 # ffffd8f0 <_end+0xffffb8f0>
  38:	00300193          	li	gp,3
  3c:	01d51463          	bne	a0,t4,44 <fail>
  40:	00301a63          	bne	zero,gp,54 <pass>

00000044 <fail>:
  44:	00018063          	beqz	gp,44 <fail>
  48:	00119193          	slli	gp,gp,0x1
  4c:	0011e193          	ori	gp,gp,1
  50:	00000073          	ecall

00000054 <pass>:
  54:	00100193          	li	gp,1
  58:	00000073          	ecall
  5c:	c0001073          	unimp
  60:	0000                	unimp
  62:	0000                	unimp
  64:	0000                	unimp
  66:	0000                	unimp
  68:	0000                	unimp
  6a:	0000                	unimp
  6c:	0000                	unimp
  6e:	0000                	unimp
  70:	0000                	unimp
  72:	0000                	unimp
  74:	0000                	unimp
  76:	0000                	unimp
  78:	0000                	unimp
  7a:	0000                	unimp
