
rv32ui-p-beq:     file format elf32-littleriscv


Disassembly of section .text.init:

00000000 <_start>:
   0:	00200193          	li	gp,2
   4:	00000093          	li	ra,0
   8:	00000113          	li	sp,0
   c:	00208663          	beq	ra,sp,18 <_start+0x18>
  10:	2a301863          	bne	zero,gp,2c0 <fail>
  14:	00301663          	bne	zero,gp,20 <test_3>
  18:	fe208ee3          	beq	ra,sp,14 <_start+0x14>
  1c:	2a301263          	bne	zero,gp,2c0 <fail>

00000020 <test_3>:
  20:	00300193          	li	gp,3
  24:	00100093          	li	ra,1
  28:	00100113          	li	sp,1
  2c:	00208663          	beq	ra,sp,38 <test_3+0x18>
  30:	28301863          	bne	zero,gp,2c0 <fail>
  34:	00301663          	bne	zero,gp,40 <test_4>
  38:	fe208ee3          	beq	ra,sp,34 <test_3+0x14>
  3c:	28301263          	bne	zero,gp,2c0 <fail>

00000040 <test_4>:
  40:	00400193          	li	gp,4
  44:	fff00093          	li	ra,-1
  48:	fff00113          	li	sp,-1
  4c:	00208663          	beq	ra,sp,58 <test_4+0x18>
  50:	26301863          	bne	zero,gp,2c0 <fail>
  54:	00301663          	bne	zero,gp,60 <test_5>
  58:	fe208ee3          	beq	ra,sp,54 <test_4+0x14>
  5c:	26301263          	bne	zero,gp,2c0 <fail>

00000060 <test_5>:
  60:	00500193          	li	gp,5
  64:	00000093          	li	ra,0
  68:	00100113          	li	sp,1
  6c:	00208463          	beq	ra,sp,74 <test_5+0x14>
  70:	00301463          	bne	zero,gp,78 <test_5+0x18>
  74:	24301663          	bne	zero,gp,2c0 <fail>
  78:	fe208ee3          	beq	ra,sp,74 <test_5+0x14>

0000007c <test_6>:
  7c:	00600193          	li	gp,6
  80:	00100093          	li	ra,1
  84:	00000113          	li	sp,0
  88:	00208463          	beq	ra,sp,90 <test_6+0x14>
  8c:	00301463          	bne	zero,gp,94 <test_6+0x18>
  90:	22301863          	bne	zero,gp,2c0 <fail>
  94:	fe208ee3          	beq	ra,sp,90 <test_6+0x14>

00000098 <test_7>:
  98:	00700193          	li	gp,7
  9c:	fff00093          	li	ra,-1
  a0:	00100113          	li	sp,1
  a4:	00208463          	beq	ra,sp,ac <test_7+0x14>
  a8:	00301463          	bne	zero,gp,b0 <test_7+0x18>
  ac:	20301a63          	bne	zero,gp,2c0 <fail>
  b0:	fe208ee3          	beq	ra,sp,ac <test_7+0x14>

000000b4 <test_8>:
  b4:	00800193          	li	gp,8
  b8:	00100093          	li	ra,1
  bc:	fff00113          	li	sp,-1
  c0:	00208463          	beq	ra,sp,c8 <test_8+0x14>
  c4:	00301463          	bne	zero,gp,cc <test_8+0x18>
  c8:	1e301c63          	bne	zero,gp,2c0 <fail>
  cc:	fe208ee3          	beq	ra,sp,c8 <test_8+0x14>

000000d0 <test_9>:
  d0:	00900193          	li	gp,9
  d4:	00000213          	li	tp,0
  d8:	00000093          	li	ra,0
  dc:	fff00113          	li	sp,-1
  e0:	1e208063          	beq	ra,sp,2c0 <fail>
  e4:	00120213          	addi	tp,tp,1 # 1 <_start+0x1>
  e8:	00200293          	li	t0,2
  ec:	fe5216e3          	bne	tp,t0,d8 <test_9+0x8>

000000f0 <test_10>:
  f0:	00a00193          	li	gp,10
  f4:	00000213          	li	tp,0
  f8:	00000093          	li	ra,0
  fc:	fff00113          	li	sp,-1
 100:	00000013          	nop
 104:	1a208e63          	beq	ra,sp,2c0 <fail>
 108:	00120213          	addi	tp,tp,1 # 1 <_start+0x1>
 10c:	00200293          	li	t0,2
 110:	fe5214e3          	bne	tp,t0,f8 <test_10+0x8>

00000114 <test_11>:
 114:	00b00193          	li	gp,11
 118:	00000213          	li	tp,0
 11c:	00000093          	li	ra,0
 120:	fff00113          	li	sp,-1
 124:	00000013          	nop
 128:	00000013          	nop
 12c:	18208a63          	beq	ra,sp,2c0 <fail>
 130:	00120213          	addi	tp,tp,1 # 1 <_start+0x1>
 134:	00200293          	li	t0,2
 138:	fe5212e3          	bne	tp,t0,11c <test_11+0x8>

0000013c <test_12>:
 13c:	00c00193          	li	gp,12
 140:	00000213          	li	tp,0
 144:	00000093          	li	ra,0
 148:	00000013          	nop
 14c:	fff00113          	li	sp,-1
 150:	16208863          	beq	ra,sp,2c0 <fail>
 154:	00120213          	addi	tp,tp,1 # 1 <_start+0x1>
 158:	00200293          	li	t0,2
 15c:	fe5214e3          	bne	tp,t0,144 <test_12+0x8>

00000160 <test_13>:
 160:	00d00193          	li	gp,13
 164:	00000213          	li	tp,0
 168:	00000093          	li	ra,0
 16c:	00000013          	nop
 170:	fff00113          	li	sp,-1
 174:	00000013          	nop
 178:	14208463          	beq	ra,sp,2c0 <fail>
 17c:	00120213          	addi	tp,tp,1 # 1 <_start+0x1>
 180:	00200293          	li	t0,2
 184:	fe5212e3          	bne	tp,t0,168 <test_13+0x8>

00000188 <test_14>:
 188:	00e00193          	li	gp,14
 18c:	00000213          	li	tp,0
 190:	00000093          	li	ra,0
 194:	00000013          	nop
 198:	00000013          	nop
 19c:	fff00113          	li	sp,-1
 1a0:	12208063          	beq	ra,sp,2c0 <fail>
 1a4:	00120213          	addi	tp,tp,1 # 1 <_start+0x1>
 1a8:	00200293          	li	t0,2
 1ac:	fe5212e3          	bne	tp,t0,190 <test_14+0x8>

000001b0 <test_15>:
 1b0:	00f00193          	li	gp,15
 1b4:	00000213          	li	tp,0
 1b8:	00000093          	li	ra,0
 1bc:	fff00113          	li	sp,-1
 1c0:	10208063          	beq	ra,sp,2c0 <fail>
 1c4:	00120213          	addi	tp,tp,1 # 1 <_start+0x1>
 1c8:	00200293          	li	t0,2
 1cc:	fe5216e3          	bne	tp,t0,1b8 <test_15+0x8>

000001d0 <test_16>:
 1d0:	01000193          	li	gp,16
 1d4:	00000213          	li	tp,0
 1d8:	00000093          	li	ra,0
 1dc:	fff00113          	li	sp,-1
 1e0:	00000013          	nop
 1e4:	0c208e63          	beq	ra,sp,2c0 <fail>
 1e8:	00120213          	addi	tp,tp,1 # 1 <_start+0x1>
 1ec:	00200293          	li	t0,2
 1f0:	fe5214e3          	bne	tp,t0,1d8 <test_16+0x8>

000001f4 <test_17>:
 1f4:	01100193          	li	gp,17
 1f8:	00000213          	li	tp,0
 1fc:	00000093          	li	ra,0
 200:	fff00113          	li	sp,-1
 204:	00000013          	nop
 208:	00000013          	nop
 20c:	0a208a63          	beq	ra,sp,2c0 <fail>
 210:	00120213          	addi	tp,tp,1 # 1 <_start+0x1>
 214:	00200293          	li	t0,2
 218:	fe5212e3          	bne	tp,t0,1fc <test_17+0x8>

0000021c <test_18>:
 21c:	01200193          	li	gp,18
 220:	00000213          	li	tp,0
 224:	00000093          	li	ra,0
 228:	00000013          	nop
 22c:	fff00113          	li	sp,-1
 230:	08208863          	beq	ra,sp,2c0 <fail>
 234:	00120213          	addi	tp,tp,1 # 1 <_start+0x1>
 238:	00200293          	li	t0,2
 23c:	fe5214e3          	bne	tp,t0,224 <test_18+0x8>

00000240 <test_19>:
 240:	01300193          	li	gp,19
 244:	00000213          	li	tp,0
 248:	00000093          	li	ra,0
 24c:	00000013          	nop
 250:	fff00113          	li	sp,-1
 254:	00000013          	nop
 258:	06208463          	beq	ra,sp,2c0 <fail>
 25c:	00120213          	addi	tp,tp,1 # 1 <_start+0x1>
 260:	00200293          	li	t0,2
 264:	fe5212e3          	bne	tp,t0,248 <test_19+0x8>

00000268 <test_20>:
 268:	01400193          	li	gp,20
 26c:	00000213          	li	tp,0
 270:	00000093          	li	ra,0
 274:	00000013          	nop
 278:	00000013          	nop
 27c:	fff00113          	li	sp,-1
 280:	04208063          	beq	ra,sp,2c0 <fail>
 284:	00120213          	addi	tp,tp,1 # 1 <_start+0x1>
 288:	00200293          	li	t0,2
 28c:	fe5212e3          	bne	tp,t0,270 <test_20+0x8>

00000290 <test_21>:
 290:	00100093          	li	ra,1
 294:	00000a63          	beqz	zero,2a8 <test_21+0x18>
 298:	00108093          	addi	ra,ra,1
 29c:	00108093          	addi	ra,ra,1
 2a0:	00108093          	addi	ra,ra,1
 2a4:	00108093          	addi	ra,ra,1
 2a8:	00108093          	addi	ra,ra,1
 2ac:	00108093          	addi	ra,ra,1
 2b0:	00300e93          	li	t4,3
 2b4:	01500193          	li	gp,21
 2b8:	01d09463          	bne	ra,t4,2c0 <fail>
 2bc:	00301a63          	bne	zero,gp,2d0 <pass>

000002c0 <fail>:
 2c0:	00018063          	beqz	gp,2c0 <fail>
 2c4:	00119193          	slli	gp,gp,0x1
 2c8:	0011e193          	ori	gp,gp,1
 2cc:	00000073          	ecall

000002d0 <pass>:
 2d0:	00100193          	li	gp,1
 2d4:	00000073          	ecall
 2d8:	c0001073          	unimp
 2dc:	0000                	unimp
 2de:	0000                	unimp
 2e0:	0000                	unimp
 2e2:	0000                	unimp
 2e4:	0000                	unimp
 2e6:	0000                	unimp
 2e8:	0000                	unimp
 2ea:	0000                	unimp
 2ec:	0000                	unimp
 2ee:	0000                	unimp
 2f0:	0000                	unimp
 2f2:	0000                	unimp
 2f4:	0000                	unimp
 2f6:	0000                	unimp
 2f8:	0000                	unimp
 2fa:	0000                	unimp
 2fc:	0000                	unimp
 2fe:	0000                	unimp
 300:	0000                	unimp
 302:	0000                	unimp
