
rv32ui-p-bgeu:     file format elf32-littleriscv


Disassembly of section .text.init:

00000000 <_start>:
   0:	00200193          	li	gp,2
   4:	00000093          	li	ra,0
   8:	00000113          	li	sp,0
   c:	0020f663          	bleu	sp,ra,18 <_start+0x18>
  10:	34301263          	bne	zero,gp,354 <fail>
  14:	00301663          	bne	zero,gp,20 <test_3>
  18:	fe20fee3          	bleu	sp,ra,14 <_start+0x14>
  1c:	32301c63          	bne	zero,gp,354 <fail>

00000020 <test_3>:
  20:	00300193          	li	gp,3
  24:	00100093          	li	ra,1
  28:	00100113          	li	sp,1
  2c:	0020f663          	bleu	sp,ra,38 <test_3+0x18>
  30:	32301263          	bne	zero,gp,354 <fail>
  34:	00301663          	bne	zero,gp,40 <test_4>
  38:	fe20fee3          	bleu	sp,ra,34 <test_3+0x14>
  3c:	30301c63          	bne	zero,gp,354 <fail>

00000040 <test_4>:
  40:	00400193          	li	gp,4
  44:	fff00093          	li	ra,-1
  48:	fff00113          	li	sp,-1
  4c:	0020f663          	bleu	sp,ra,58 <test_4+0x18>
  50:	30301263          	bne	zero,gp,354 <fail>
  54:	00301663          	bne	zero,gp,60 <test_5>
  58:	fe20fee3          	bleu	sp,ra,54 <test_4+0x14>
  5c:	2e301c63          	bne	zero,gp,354 <fail>

00000060 <test_5>:
  60:	00500193          	li	gp,5
  64:	00100093          	li	ra,1
  68:	00000113          	li	sp,0
  6c:	0020f663          	bleu	sp,ra,78 <test_5+0x18>
  70:	2e301263          	bne	zero,gp,354 <fail>
  74:	00301663          	bne	zero,gp,80 <test_6>
  78:	fe20fee3          	bleu	sp,ra,74 <test_5+0x14>
  7c:	2c301c63          	bne	zero,gp,354 <fail>

00000080 <test_6>:
  80:	00600193          	li	gp,6
  84:	fff00093          	li	ra,-1
  88:	ffe00113          	li	sp,-2
  8c:	0020f663          	bleu	sp,ra,98 <test_6+0x18>
  90:	2c301263          	bne	zero,gp,354 <fail>
  94:	00301663          	bne	zero,gp,a0 <test_7>
  98:	fe20fee3          	bleu	sp,ra,94 <test_6+0x14>
  9c:	2a301c63          	bne	zero,gp,354 <fail>

000000a0 <test_7>:
  a0:	00700193          	li	gp,7
  a4:	fff00093          	li	ra,-1
  a8:	00000113          	li	sp,0
  ac:	0020f663          	bleu	sp,ra,b8 <test_7+0x18>
  b0:	2a301263          	bne	zero,gp,354 <fail>
  b4:	00301663          	bne	zero,gp,c0 <test_8>
  b8:	fe20fee3          	bleu	sp,ra,b4 <test_7+0x14>
  bc:	28301c63          	bne	zero,gp,354 <fail>

000000c0 <test_8>:
  c0:	00800193          	li	gp,8
  c4:	00000093          	li	ra,0
  c8:	00100113          	li	sp,1
  cc:	0020f463          	bleu	sp,ra,d4 <test_8+0x14>
  d0:	00301463          	bne	zero,gp,d8 <test_8+0x18>
  d4:	28301063          	bne	zero,gp,354 <fail>
  d8:	fe20fee3          	bleu	sp,ra,d4 <test_8+0x14>

000000dc <test_9>:
  dc:	00900193          	li	gp,9
  e0:	ffe00093          	li	ra,-2
  e4:	fff00113          	li	sp,-1
  e8:	0020f463          	bleu	sp,ra,f0 <test_9+0x14>
  ec:	00301463          	bne	zero,gp,f4 <test_9+0x18>
  f0:	26301263          	bne	zero,gp,354 <fail>
  f4:	fe20fee3          	bleu	sp,ra,f0 <test_9+0x14>

000000f8 <test_10>:
  f8:	00a00193          	li	gp,10
  fc:	00000093          	li	ra,0
 100:	fff00113          	li	sp,-1
 104:	0020f463          	bleu	sp,ra,10c <test_10+0x14>
 108:	00301463          	bne	zero,gp,110 <test_10+0x18>
 10c:	24301463          	bne	zero,gp,354 <fail>
 110:	fe20fee3          	bleu	sp,ra,10c <test_10+0x14>

00000114 <test_11>:
 114:	00b00193          	li	gp,11
 118:	800000b7          	lui	ra,0x80000
 11c:	fff08093          	addi	ra,ra,-1 # 7fffffff <_end+0x7fffdfff>
 120:	80000137          	lui	sp,0x80000
 124:	0020f463          	bleu	sp,ra,12c <test_11+0x18>
 128:	00301463          	bne	zero,gp,130 <test_11+0x1c>
 12c:	22301463          	bne	zero,gp,354 <fail>
 130:	fe20fee3          	bleu	sp,ra,12c <test_11+0x18>

00000134 <test_12>:
 134:	00c00193          	li	gp,12
 138:	00000213          	li	tp,0
 13c:	f00000b7          	lui	ra,0xf0000
 140:	fff08093          	addi	ra,ra,-1 # efffffff <_end+0xefffdfff>
 144:	f0000137          	lui	sp,0xf0000
 148:	2020f663          	bleu	sp,ra,354 <fail>
 14c:	00120213          	addi	tp,tp,1 # 1 <_start+0x1>
 150:	00200293          	li	t0,2
 154:	fe5214e3          	bne	tp,t0,13c <test_12+0x8>

00000158 <test_13>:
 158:	00d00193          	li	gp,13
 15c:	00000213          	li	tp,0
 160:	f00000b7          	lui	ra,0xf0000
 164:	fff08093          	addi	ra,ra,-1 # efffffff <_end+0xefffdfff>
 168:	f0000137          	lui	sp,0xf0000
 16c:	00000013          	nop
 170:	1e20f263          	bleu	sp,ra,354 <fail>
 174:	00120213          	addi	tp,tp,1 # 1 <_start+0x1>
 178:	00200293          	li	t0,2
 17c:	fe5212e3          	bne	tp,t0,160 <test_13+0x8>

00000180 <test_14>:
 180:	00e00193          	li	gp,14
 184:	00000213          	li	tp,0
 188:	f00000b7          	lui	ra,0xf0000
 18c:	fff08093          	addi	ra,ra,-1 # efffffff <_end+0xefffdfff>
 190:	f0000137          	lui	sp,0xf0000
 194:	00000013          	nop
 198:	00000013          	nop
 19c:	1a20fc63          	bleu	sp,ra,354 <fail>
 1a0:	00120213          	addi	tp,tp,1 # 1 <_start+0x1>
 1a4:	00200293          	li	t0,2
 1a8:	fe5210e3          	bne	tp,t0,188 <test_14+0x8>

000001ac <test_15>:
 1ac:	00f00193          	li	gp,15
 1b0:	00000213          	li	tp,0
 1b4:	f00000b7          	lui	ra,0xf0000
 1b8:	fff08093          	addi	ra,ra,-1 # efffffff <_end+0xefffdfff>
 1bc:	00000013          	nop
 1c0:	f0000137          	lui	sp,0xf0000
 1c4:	1820f863          	bleu	sp,ra,354 <fail>
 1c8:	00120213          	addi	tp,tp,1 # 1 <_start+0x1>
 1cc:	00200293          	li	t0,2
 1d0:	fe5212e3          	bne	tp,t0,1b4 <test_15+0x8>

000001d4 <test_16>:
 1d4:	01000193          	li	gp,16
 1d8:	00000213          	li	tp,0
 1dc:	f00000b7          	lui	ra,0xf0000
 1e0:	fff08093          	addi	ra,ra,-1 # efffffff <_end+0xefffdfff>
 1e4:	00000013          	nop
 1e8:	f0000137          	lui	sp,0xf0000
 1ec:	00000013          	nop
 1f0:	1620f263          	bleu	sp,ra,354 <fail>
 1f4:	00120213          	addi	tp,tp,1 # 1 <_start+0x1>
 1f8:	00200293          	li	t0,2
 1fc:	fe5210e3          	bne	tp,t0,1dc <test_16+0x8>

00000200 <test_17>:
 200:	01100193          	li	gp,17
 204:	00000213          	li	tp,0
 208:	f00000b7          	lui	ra,0xf0000
 20c:	fff08093          	addi	ra,ra,-1 # efffffff <_end+0xefffdfff>
 210:	00000013          	nop
 214:	00000013          	nop
 218:	f0000137          	lui	sp,0xf0000
 21c:	1220fc63          	bleu	sp,ra,354 <fail>
 220:	00120213          	addi	tp,tp,1 # 1 <_start+0x1>
 224:	00200293          	li	t0,2
 228:	fe5210e3          	bne	tp,t0,208 <test_17+0x8>

0000022c <test_18>:
 22c:	01200193          	li	gp,18
 230:	00000213          	li	tp,0
 234:	f00000b7          	lui	ra,0xf0000
 238:	fff08093          	addi	ra,ra,-1 # efffffff <_end+0xefffdfff>
 23c:	f0000137          	lui	sp,0xf0000
 240:	1020fa63          	bleu	sp,ra,354 <fail>
 244:	00120213          	addi	tp,tp,1 # 1 <_start+0x1>
 248:	00200293          	li	t0,2
 24c:	fe5214e3          	bne	tp,t0,234 <test_18+0x8>

00000250 <test_19>:
 250:	01300193          	li	gp,19
 254:	00000213          	li	tp,0
 258:	f00000b7          	lui	ra,0xf0000
 25c:	fff08093          	addi	ra,ra,-1 # efffffff <_end+0xefffdfff>
 260:	f0000137          	lui	sp,0xf0000
 264:	00000013          	nop
 268:	0e20f663          	bleu	sp,ra,354 <fail>
 26c:	00120213          	addi	tp,tp,1 # 1 <_start+0x1>
 270:	00200293          	li	t0,2
 274:	fe5212e3          	bne	tp,t0,258 <test_19+0x8>

00000278 <test_20>:
 278:	01400193          	li	gp,20
 27c:	00000213          	li	tp,0
 280:	f00000b7          	lui	ra,0xf0000
 284:	fff08093          	addi	ra,ra,-1 # efffffff <_end+0xefffdfff>
 288:	f0000137          	lui	sp,0xf0000
 28c:	00000013          	nop
 290:	00000013          	nop
 294:	0c20f063          	bleu	sp,ra,354 <fail>
 298:	00120213          	addi	tp,tp,1 # 1 <_start+0x1>
 29c:	00200293          	li	t0,2
 2a0:	fe5210e3          	bne	tp,t0,280 <test_20+0x8>

000002a4 <test_21>:
 2a4:	01500193          	li	gp,21
 2a8:	00000213          	li	tp,0
 2ac:	f00000b7          	lui	ra,0xf0000
 2b0:	fff08093          	addi	ra,ra,-1 # efffffff <_end+0xefffdfff>
 2b4:	00000013          	nop
 2b8:	f0000137          	lui	sp,0xf0000
 2bc:	0820fc63          	bleu	sp,ra,354 <fail>
 2c0:	00120213          	addi	tp,tp,1 # 1 <_start+0x1>
 2c4:	00200293          	li	t0,2
 2c8:	fe5212e3          	bne	tp,t0,2ac <test_21+0x8>

000002cc <test_22>:
 2cc:	01600193          	li	gp,22
 2d0:	00000213          	li	tp,0
 2d4:	f00000b7          	lui	ra,0xf0000
 2d8:	fff08093          	addi	ra,ra,-1 # efffffff <_end+0xefffdfff>
 2dc:	00000013          	nop
 2e0:	f0000137          	lui	sp,0xf0000
 2e4:	00000013          	nop
 2e8:	0620f663          	bleu	sp,ra,354 <fail>
 2ec:	00120213          	addi	tp,tp,1 # 1 <_start+0x1>
 2f0:	00200293          	li	t0,2
 2f4:	fe5210e3          	bne	tp,t0,2d4 <test_22+0x8>

000002f8 <test_23>:
 2f8:	01700193          	li	gp,23
 2fc:	00000213          	li	tp,0
 300:	f00000b7          	lui	ra,0xf0000
 304:	fff08093          	addi	ra,ra,-1 # efffffff <_end+0xefffdfff>
 308:	00000013          	nop
 30c:	00000013          	nop
 310:	f0000137          	lui	sp,0xf0000
 314:	0420f063          	bleu	sp,ra,354 <fail>
 318:	00120213          	addi	tp,tp,1 # 1 <_start+0x1>
 31c:	00200293          	li	t0,2
 320:	fe5210e3          	bne	tp,t0,300 <test_23+0x8>

00000324 <test_24>:
 324:	00100093          	li	ra,1
 328:	0000fa63          	bleu	zero,ra,33c <test_24+0x18>
 32c:	00108093          	addi	ra,ra,1
 330:	00108093          	addi	ra,ra,1
 334:	00108093          	addi	ra,ra,1
 338:	00108093          	addi	ra,ra,1
 33c:	00108093          	addi	ra,ra,1
 340:	00108093          	addi	ra,ra,1
 344:	00300e93          	li	t4,3
 348:	01800193          	li	gp,24
 34c:	01d09463          	bne	ra,t4,354 <fail>
 350:	00301a63          	bne	zero,gp,364 <pass>

00000354 <fail>:
 354:	00018063          	beqz	gp,354 <fail>
 358:	00119193          	slli	gp,gp,0x1
 35c:	0011e193          	ori	gp,gp,1
 360:	00000073          	ecall

00000364 <pass>:
 364:	00100193          	li	gp,1
 368:	00000073          	ecall
 36c:	c0001073          	unimp
 370:	0000                	unimp
 372:	0000                	unimp
 374:	0000                	unimp
 376:	0000                	unimp
 378:	0000                	unimp
 37a:	0000                	unimp
 37c:	0000                	unimp
 37e:	0000                	unimp
 380:	0000                	unimp
 382:	0000                	unimp
