
rv32ui-p-srai:     file format elf32-littleriscv


Disassembly of section .text.init:

00000000 <_start>:
   0:	00000093          	li	ra,0
   4:	4000df13          	srai	t5,ra,0x0
   8:	00000e93          	li	t4,0
   c:	00200193          	li	gp,2
  10:	2bdf1463          	bne	t5,t4,2b8 <fail>

00000014 <test_3>:
  14:	800000b7          	lui	ra,0x80000
  18:	4010df13          	srai	t5,ra,0x1
  1c:	c0000eb7          	lui	t4,0xc0000
  20:	00300193          	li	gp,3
  24:	29df1a63          	bne	t5,t4,2b8 <fail>

00000028 <test_4>:
  28:	800000b7          	lui	ra,0x80000
  2c:	4070df13          	srai	t5,ra,0x7
  30:	ff000eb7          	lui	t4,0xff000
  34:	00400193          	li	gp,4
  38:	29df1063          	bne	t5,t4,2b8 <fail>

0000003c <test_5>:
  3c:	800000b7          	lui	ra,0x80000
  40:	40e0df13          	srai	t5,ra,0xe
  44:	fffe0eb7          	lui	t4,0xfffe0
  48:	00500193          	li	gp,5
  4c:	27df1663          	bne	t5,t4,2b8 <fail>

00000050 <test_6>:
  50:	800000b7          	lui	ra,0x80000
  54:	00108093          	addi	ra,ra,1 # 80000001 <_end+0x7fffe001>
  58:	41f0df13          	srai	t5,ra,0x1f
  5c:	fff00e93          	li	t4,-1
  60:	00600193          	li	gp,6
  64:	25df1a63          	bne	t5,t4,2b8 <fail>

00000068 <test_7>:
  68:	800000b7          	lui	ra,0x80000
  6c:	fff08093          	addi	ra,ra,-1 # 7fffffff <_end+0x7fffdfff>
  70:	4000df13          	srai	t5,ra,0x0
  74:	80000eb7          	lui	t4,0x80000
  78:	fffe8e93          	addi	t4,t4,-1 # 7fffffff <_end+0x7fffdfff>
  7c:	00700193          	li	gp,7
  80:	23df1c63          	bne	t5,t4,2b8 <fail>

00000084 <test_8>:
  84:	800000b7          	lui	ra,0x80000
  88:	fff08093          	addi	ra,ra,-1 # 7fffffff <_end+0x7fffdfff>
  8c:	4010df13          	srai	t5,ra,0x1
  90:	40000eb7          	lui	t4,0x40000
  94:	fffe8e93          	addi	t4,t4,-1 # 3fffffff <_end+0x3fffdfff>
  98:	00800193          	li	gp,8
  9c:	21df1e63          	bne	t5,t4,2b8 <fail>

000000a0 <test_9>:
  a0:	800000b7          	lui	ra,0x80000
  a4:	fff08093          	addi	ra,ra,-1 # 7fffffff <_end+0x7fffdfff>
  a8:	4070df13          	srai	t5,ra,0x7
  ac:	01000eb7          	lui	t4,0x1000
  b0:	fffe8e93          	addi	t4,t4,-1 # ffffff <_end+0xffdfff>
  b4:	00900193          	li	gp,9
  b8:	21df1063          	bne	t5,t4,2b8 <fail>

000000bc <test_10>:
  bc:	800000b7          	lui	ra,0x80000
  c0:	fff08093          	addi	ra,ra,-1 # 7fffffff <_end+0x7fffdfff>
  c4:	40e0df13          	srai	t5,ra,0xe
  c8:	00020eb7          	lui	t4,0x20
  cc:	fffe8e93          	addi	t4,t4,-1 # 1ffff <_end+0x1dfff>
  d0:	00a00193          	li	gp,10
  d4:	1fdf1263          	bne	t5,t4,2b8 <fail>

000000d8 <test_11>:
  d8:	800000b7          	lui	ra,0x80000
  dc:	fff08093          	addi	ra,ra,-1 # 7fffffff <_end+0x7fffdfff>
  e0:	41f0df13          	srai	t5,ra,0x1f
  e4:	00000e93          	li	t4,0
  e8:	00b00193          	li	gp,11
  ec:	1ddf1663          	bne	t5,t4,2b8 <fail>

000000f0 <test_12>:
  f0:	818180b7          	lui	ra,0x81818
  f4:	18108093          	addi	ra,ra,385 # 81818181 <_end+0x81816181>
  f8:	4000df13          	srai	t5,ra,0x0
  fc:	81818eb7          	lui	t4,0x81818
 100:	181e8e93          	addi	t4,t4,385 # 81818181 <_end+0x81816181>
 104:	00c00193          	li	gp,12
 108:	1bdf1863          	bne	t5,t4,2b8 <fail>

0000010c <test_13>:
 10c:	818180b7          	lui	ra,0x81818
 110:	18108093          	addi	ra,ra,385 # 81818181 <_end+0x81816181>
 114:	4010df13          	srai	t5,ra,0x1
 118:	c0c0ceb7          	lui	t4,0xc0c0c
 11c:	0c0e8e93          	addi	t4,t4,192 # c0c0c0c0 <_end+0xc0c0a0c0>
 120:	00d00193          	li	gp,13
 124:	19df1a63          	bne	t5,t4,2b8 <fail>

00000128 <test_14>:
 128:	818180b7          	lui	ra,0x81818
 12c:	18108093          	addi	ra,ra,385 # 81818181 <_end+0x81816181>
 130:	4070df13          	srai	t5,ra,0x7
 134:	ff030eb7          	lui	t4,0xff030
 138:	303e8e93          	addi	t4,t4,771 # ff030303 <_end+0xff02e303>
 13c:	00e00193          	li	gp,14
 140:	17df1c63          	bne	t5,t4,2b8 <fail>

00000144 <test_15>:
 144:	818180b7          	lui	ra,0x81818
 148:	18108093          	addi	ra,ra,385 # 81818181 <_end+0x81816181>
 14c:	40e0df13          	srai	t5,ra,0xe
 150:	fffe0eb7          	lui	t4,0xfffe0
 154:	606e8e93          	addi	t4,t4,1542 # fffe0606 <_end+0xfffde606>
 158:	00f00193          	li	gp,15
 15c:	15df1e63          	bne	t5,t4,2b8 <fail>

00000160 <test_16>:
 160:	818180b7          	lui	ra,0x81818
 164:	18108093          	addi	ra,ra,385 # 81818181 <_end+0x81816181>
 168:	41f0df13          	srai	t5,ra,0x1f
 16c:	fff00e93          	li	t4,-1
 170:	01000193          	li	gp,16
 174:	15df1263          	bne	t5,t4,2b8 <fail>

00000178 <test_17>:
 178:	800000b7          	lui	ra,0x80000
 17c:	4070d093          	srai	ra,ra,0x7
 180:	ff000eb7          	lui	t4,0xff000
 184:	01100193          	li	gp,17
 188:	13d09863          	bne	ra,t4,2b8 <fail>

0000018c <test_18>:
 18c:	00000213          	li	tp,0
 190:	800000b7          	lui	ra,0x80000
 194:	4070df13          	srai	t5,ra,0x7
 198:	000f0313          	mv	t1,t5
 19c:	00120213          	addi	tp,tp,1 # 1 <_start+0x1>
 1a0:	00200293          	li	t0,2
 1a4:	fe5216e3          	bne	tp,t0,190 <test_18+0x4>
 1a8:	ff000eb7          	lui	t4,0xff000
 1ac:	01200193          	li	gp,18
 1b0:	11d31463          	bne	t1,t4,2b8 <fail>

000001b4 <test_19>:
 1b4:	00000213          	li	tp,0
 1b8:	800000b7          	lui	ra,0x80000
 1bc:	40e0df13          	srai	t5,ra,0xe
 1c0:	00000013          	nop
 1c4:	000f0313          	mv	t1,t5
 1c8:	00120213          	addi	tp,tp,1 # 1 <_start+0x1>
 1cc:	00200293          	li	t0,2
 1d0:	fe5214e3          	bne	tp,t0,1b8 <test_19+0x4>
 1d4:	fffe0eb7          	lui	t4,0xfffe0
 1d8:	01300193          	li	gp,19
 1dc:	0dd31e63          	bne	t1,t4,2b8 <fail>

000001e0 <test_20>:
 1e0:	00000213          	li	tp,0
 1e4:	800000b7          	lui	ra,0x80000
 1e8:	00108093          	addi	ra,ra,1 # 80000001 <_end+0x7fffe001>
 1ec:	41f0df13          	srai	t5,ra,0x1f
 1f0:	00000013          	nop
 1f4:	00000013          	nop
 1f8:	000f0313          	mv	t1,t5
 1fc:	00120213          	addi	tp,tp,1 # 1 <_start+0x1>
 200:	00200293          	li	t0,2
 204:	fe5210e3          	bne	tp,t0,1e4 <test_20+0x4>
 208:	fff00e93          	li	t4,-1
 20c:	01400193          	li	gp,20
 210:	0bd31463          	bne	t1,t4,2b8 <fail>

00000214 <test_21>:
 214:	00000213          	li	tp,0
 218:	800000b7          	lui	ra,0x80000
 21c:	4070df13          	srai	t5,ra,0x7
 220:	00120213          	addi	tp,tp,1 # 1 <_start+0x1>
 224:	00200293          	li	t0,2
 228:	fe5218e3          	bne	tp,t0,218 <test_21+0x4>
 22c:	ff000eb7          	lui	t4,0xff000
 230:	01500193          	li	gp,21
 234:	09df1263          	bne	t5,t4,2b8 <fail>

00000238 <test_22>:
 238:	00000213          	li	tp,0
 23c:	800000b7          	lui	ra,0x80000
 240:	00000013          	nop
 244:	40e0df13          	srai	t5,ra,0xe
 248:	00120213          	addi	tp,tp,1 # 1 <_start+0x1>
 24c:	00200293          	li	t0,2
 250:	fe5216e3          	bne	tp,t0,23c <test_22+0x4>
 254:	fffe0eb7          	lui	t4,0xfffe0
 258:	01600193          	li	gp,22
 25c:	05df1e63          	bne	t5,t4,2b8 <fail>

00000260 <test_23>:
 260:	00000213          	li	tp,0
 264:	800000b7          	lui	ra,0x80000
 268:	00108093          	addi	ra,ra,1 # 80000001 <_end+0x7fffe001>
 26c:	00000013          	nop
 270:	00000013          	nop
 274:	41f0df13          	srai	t5,ra,0x1f
 278:	00120213          	addi	tp,tp,1 # 1 <_start+0x1>
 27c:	00200293          	li	t0,2
 280:	fe5212e3          	bne	tp,t0,264 <test_23+0x4>
 284:	fff00e93          	li	t4,-1
 288:	01700193          	li	gp,23
 28c:	03df1663          	bne	t5,t4,2b8 <fail>

00000290 <test_24>:
 290:	40405093          	srai	ra,zero,0x4
 294:	00000e93          	li	t4,0
 298:	01800193          	li	gp,24
 29c:	01d09e63          	bne	ra,t4,2b8 <fail>

000002a0 <test_25>:
 2a0:	02100093          	li	ra,33
 2a4:	40a0d013          	srai	zero,ra,0xa
 2a8:	00000e93          	li	t4,0
 2ac:	01900193          	li	gp,25
 2b0:	01d01463          	bne	zero,t4,2b8 <fail>
 2b4:	00301a63          	bne	zero,gp,2c8 <pass>

000002b8 <fail>:
 2b8:	00018063          	beqz	gp,2b8 <fail>
 2bc:	00119193          	slli	gp,gp,0x1
 2c0:	0011e193          	ori	gp,gp,1
 2c4:	00000073          	ecall

000002c8 <pass>:
 2c8:	00100193          	li	gp,1
 2cc:	00000073          	ecall
 2d0:	c0001073          	unimp
 2d4:	0000                	unimp
 2d6:	0000                	unimp
 2d8:	0000                	unimp
 2da:	0000                	unimp
 2dc:	0000                	unimp
 2de:	0000                	unimp
 2e0:	0000                	unimp
 2e2:	0000                	unimp
 2e4:	0000                	unimp
 2e6:	0000                	unimp
 2e8:	0000                	unimp
 2ea:	0000                	unimp
 2ec:	0000                	unimp
 2ee:	0000                	unimp
 2f0:	0000                	unimp
 2f2:	0000                	unimp
 2f4:	0000                	unimp
 2f6:	0000                	unimp
 2f8:	0000                	unimp
 2fa:	0000                	unimp
 2fc:	0000                	unimp
 2fe:	0000                	unimp
 300:	0000                	unimp
 302:	0000                	unimp
