
rv32ui-p-xori:     file format elf32-littleriscv


Disassembly of section .text.init:

00000000 <_start>:
   0:	00ff10b7          	lui	ra,0xff1
   4:	f0008093          	addi	ra,ra,-256 # ff0f00 <_end+0xfeef00>
   8:	f0f0cf13          	xori	t5,ra,-241
   c:	ff00feb7          	lui	t4,0xff00f
  10:	00fe8e93          	addi	t4,t4,15 # ff00f00f <_end+0xff00d00f>
  14:	00200193          	li	gp,2
  18:	1ddf1663          	bne	t5,t4,1e4 <fail>

0000001c <test_3>:
  1c:	0ff010b7          	lui	ra,0xff01
  20:	ff008093          	addi	ra,ra,-16 # ff00ff0 <_end+0xfefeff0>
  24:	0f00cf13          	xori	t5,ra,240
  28:	0ff01eb7          	lui	t4,0xff01
  2c:	f00e8e93          	addi	t4,t4,-256 # ff00f00 <_end+0xfefef00>
  30:	00300193          	li	gp,3
  34:	1bdf1863          	bne	t5,t4,1e4 <fail>

00000038 <test_4>:
  38:	00ff10b7          	lui	ra,0xff1
  3c:	8ff08093          	addi	ra,ra,-1793 # ff08ff <_end+0xfee8ff>
  40:	70f0cf13          	xori	t5,ra,1807
  44:	00ff1eb7          	lui	t4,0xff1
  48:	ff0e8e93          	addi	t4,t4,-16 # ff0ff0 <_end+0xfeeff0>
  4c:	00400193          	li	gp,4
  50:	19df1a63          	bne	t5,t4,1e4 <fail>

00000054 <test_5>:
  54:	f00ff0b7          	lui	ra,0xf00ff
  58:	00f08093          	addi	ra,ra,15 # f00ff00f <_end+0xf00fd00f>
  5c:	0f00cf13          	xori	t5,ra,240
  60:	f00ffeb7          	lui	t4,0xf00ff
  64:	0ffe8e93          	addi	t4,t4,255 # f00ff0ff <_end+0xf00fd0ff>
  68:	00500193          	li	gp,5
  6c:	17df1c63          	bne	t5,t4,1e4 <fail>

00000070 <test_6>:
  70:	ff00f0b7          	lui	ra,0xff00f
  74:	70008093          	addi	ra,ra,1792 # ff00f700 <_end+0xff00d700>
  78:	70f0c093          	xori	ra,ra,1807
  7c:	ff00feb7          	lui	t4,0xff00f
  80:	00fe8e93          	addi	t4,t4,15 # ff00f00f <_end+0xff00d00f>
  84:	00600193          	li	gp,6
  88:	15d09e63          	bne	ra,t4,1e4 <fail>

0000008c <test_7>:
  8c:	00000213          	li	tp,0
  90:	0ff010b7          	lui	ra,0xff01
  94:	ff008093          	addi	ra,ra,-16 # ff00ff0 <_end+0xfefeff0>
  98:	0f00cf13          	xori	t5,ra,240
  9c:	000f0313          	mv	t1,t5
  a0:	00120213          	addi	tp,tp,1 # 1 <_start+0x1>
  a4:	00200293          	li	t0,2
  a8:	fe5214e3          	bne	tp,t0,90 <test_7+0x4>
  ac:	0ff01eb7          	lui	t4,0xff01
  b0:	f00e8e93          	addi	t4,t4,-256 # ff00f00 <_end+0xfefef00>
  b4:	00700193          	li	gp,7
  b8:	13d31663          	bne	t1,t4,1e4 <fail>

000000bc <test_8>:
  bc:	00000213          	li	tp,0
  c0:	00ff10b7          	lui	ra,0xff1
  c4:	8ff08093          	addi	ra,ra,-1793 # ff08ff <_end+0xfee8ff>
  c8:	70f0cf13          	xori	t5,ra,1807
  cc:	00000013          	nop
  d0:	000f0313          	mv	t1,t5
  d4:	00120213          	addi	tp,tp,1 # 1 <_start+0x1>
  d8:	00200293          	li	t0,2
  dc:	fe5212e3          	bne	tp,t0,c0 <test_8+0x4>
  e0:	00ff1eb7          	lui	t4,0xff1
  e4:	ff0e8e93          	addi	t4,t4,-16 # ff0ff0 <_end+0xfeeff0>
  e8:	00800193          	li	gp,8
  ec:	0fd31c63          	bne	t1,t4,1e4 <fail>

000000f0 <test_9>:
  f0:	00000213          	li	tp,0
  f4:	f00ff0b7          	lui	ra,0xf00ff
  f8:	00f08093          	addi	ra,ra,15 # f00ff00f <_end+0xf00fd00f>
  fc:	0f00cf13          	xori	t5,ra,240
 100:	00000013          	nop
 104:	00000013          	nop
 108:	000f0313          	mv	t1,t5
 10c:	00120213          	addi	tp,tp,1 # 1 <_start+0x1>
 110:	00200293          	li	t0,2
 114:	fe5210e3          	bne	tp,t0,f4 <test_9+0x4>
 118:	f00ffeb7          	lui	t4,0xf00ff
 11c:	0ffe8e93          	addi	t4,t4,255 # f00ff0ff <_end+0xf00fd0ff>
 120:	00900193          	li	gp,9
 124:	0dd31063          	bne	t1,t4,1e4 <fail>

00000128 <test_10>:
 128:	00000213          	li	tp,0
 12c:	0ff010b7          	lui	ra,0xff01
 130:	ff008093          	addi	ra,ra,-16 # ff00ff0 <_end+0xfefeff0>
 134:	0f00cf13          	xori	t5,ra,240
 138:	00120213          	addi	tp,tp,1 # 1 <_start+0x1>
 13c:	00200293          	li	t0,2
 140:	fe5216e3          	bne	tp,t0,12c <test_10+0x4>
 144:	0ff01eb7          	lui	t4,0xff01
 148:	f00e8e93          	addi	t4,t4,-256 # ff00f00 <_end+0xfefef00>
 14c:	00a00193          	li	gp,10
 150:	09df1a63          	bne	t5,t4,1e4 <fail>

00000154 <test_11>:
 154:	00000213          	li	tp,0
 158:	00ff10b7          	lui	ra,0xff1
 15c:	fff08093          	addi	ra,ra,-1 # ff0fff <_end+0xfeefff>
 160:	00000013          	nop
 164:	00f0cf13          	xori	t5,ra,15
 168:	00120213          	addi	tp,tp,1 # 1 <_start+0x1>
 16c:	00200293          	li	t0,2
 170:	fe5214e3          	bne	tp,t0,158 <test_11+0x4>
 174:	00ff1eb7          	lui	t4,0xff1
 178:	ff0e8e93          	addi	t4,t4,-16 # ff0ff0 <_end+0xfeeff0>
 17c:	00b00193          	li	gp,11
 180:	07df1263          	bne	t5,t4,1e4 <fail>

00000184 <test_12>:
 184:	00000213          	li	tp,0
 188:	f00ff0b7          	lui	ra,0xf00ff
 18c:	00f08093          	addi	ra,ra,15 # f00ff00f <_end+0xf00fd00f>
 190:	00000013          	nop
 194:	00000013          	nop
 198:	0f00cf13          	xori	t5,ra,240
 19c:	00120213          	addi	tp,tp,1 # 1 <_start+0x1>
 1a0:	00200293          	li	t0,2
 1a4:	fe5212e3          	bne	tp,t0,188 <test_12+0x4>
 1a8:	f00ffeb7          	lui	t4,0xf00ff
 1ac:	0ffe8e93          	addi	t4,t4,255 # f00ff0ff <_end+0xf00fd0ff>
 1b0:	00c00193          	li	gp,12
 1b4:	03df1863          	bne	t5,t4,1e4 <fail>

000001b8 <test_13>:
 1b8:	0f004093          	xori	ra,zero,240
 1bc:	0f000e93          	li	t4,240
 1c0:	00d00193          	li	gp,13
 1c4:	03d09063          	bne	ra,t4,1e4 <fail>

000001c8 <test_14>:
 1c8:	00ff00b7          	lui	ra,0xff0
 1cc:	0ff08093          	addi	ra,ra,255 # ff00ff <_end+0xfee0ff>
 1d0:	70f0c013          	xori	zero,ra,1807
 1d4:	00000e93          	li	t4,0
 1d8:	00e00193          	li	gp,14
 1dc:	01d01463          	bne	zero,t4,1e4 <fail>
 1e0:	00301a63          	bne	zero,gp,1f4 <pass>

000001e4 <fail>:
 1e4:	00018063          	beqz	gp,1e4 <fail>
 1e8:	00119193          	slli	gp,gp,0x1
 1ec:	0011e193          	ori	gp,gp,1
 1f0:	00000073          	ecall

000001f4 <pass>:
 1f4:	00100193          	li	gp,1
 1f8:	00000073          	ecall
 1fc:	c0001073          	unimp
 200:	0000                	unimp
 202:	0000                	unimp
